target datalayout = "e-m:e-p270:32:32-p271:32:32-p272:64:64-i64:64-i128:128-f80:128-n8:16:32:64-S128"
target triple = "x86_64-pc-linux-gnu"

%struct.Vec_Int_t_ = type { i32, i32, ptr }
%struct.Vec_Wec_t_ = type { i32, i32, ptr }
%struct.Fx_Man_t_ = type { ptr, i32, i32, ptr, ptr, ptr, ptr, ptr, ptr, ptr, ptr, ptr, ptr, ptr, ptr, ptr, i64, i32, i32, i32, i32, i32, i32, i32, [3 x i32] }

; Function Attrs: inlinehint nounwind uwtable
define internal void @Vec_IntWriteEntry(ptr noundef %0, i32 noundef %1, i32 noundef %2) #2 {
  %4 = alloca ptr, align 8
  %5 = alloca i32, align 4
  %6 = alloca i32, align 4
  store ptr %0, ptr %4, align 8, !tbaa !32
  store i32 %1, ptr %5, align 4, !tbaa !10
  store i32 %2, ptr %6, align 4, !tbaa !10
  %7 = load i32, ptr %6, align 4, !tbaa !10
  %8 = load ptr, ptr %4, align 8, !tbaa !32
  %9 = getelementptr inbounds nuw %struct.Vec_Int_t_, ptr %8, i32 0, i32 2
  %10 = load ptr, ptr %9, align 8, !tbaa !46
  %11 = load i32, ptr %5, align 4, !tbaa !10
  %12 = sext i32 %11 to i64
  %13 = getelementptr inbounds i32, ptr %10, i64 %12
  store i32 %7, ptr %13, align 4, !tbaa !10
  ret void
}

; Function Attrs: inlinehint nounwind uwtable
define internal i32 @Abc_MaxInt(i32 noundef %0, i32 noundef %1) #2 {
  %3 = alloca i32, align 4
  %4 = alloca i32, align 4
  store i32 %0, ptr %3, align 4, !tbaa !10
  store i32 %1, ptr %4, align 4, !tbaa !10
  %5 = load i32, ptr %3, align 4, !tbaa !10
  %6 = load i32, ptr %4, align 4, !tbaa !10
  %7 = icmp sgt i32 %5, %6
  br i1 %7, label %8, label %10

8:                                                ; preds = %2
  %9 = load i32, ptr %3, align 4, !tbaa !10
  br label %12

10:                                               ; preds = %2
  %11 = load i32, ptr %4, align 4, !tbaa !10
  br label %12

12:                                               ; preds = %10, %8
  %13 = phi i32 [ %9, %8 ], [ %11, %10 ]
  ret i32 %13
}

; Function Attrs: inlinehint nounwind uwtable
define internal i32 @Abc_Lit2Var(i32 noundef %0) #2 {
  %2 = alloca i32, align 4
  store i32 %0, ptr %2, align 4, !tbaa !10
  %3 = load i32, ptr %2, align 4, !tbaa !10
  %4 = ashr i32 %3, 1
  ret i32 %4
}

; Function Attrs: inlinehint nounwind uwtable
define internal i32 @Vec_IntSize(ptr noundef %0) #2 {
  %2 = alloca ptr, align 8
  store ptr %0, ptr %2, align 8, !tbaa !32
  %3 = load ptr, ptr %2, align 8, !tbaa !32
  %4 = getelementptr inbounds nuw %struct.Vec_Int_t_, ptr %3, i32 0, i32 1
  %5 = load i32, ptr %4, align 4, !tbaa !44
  ret i32 %5
}

; Function Attrs: inlinehint nounwind uwtable
define internal ptr @Vec_IntAlloc(i32 noundef %0) #2 {
  %2 = alloca i32, align 4
  %3 = alloca ptr, align 8
  store i32 %0, ptr %2, align 4, !tbaa !10
  call void @llvm.lifetime.start.p0(i64 8, ptr %3) #13
  %4 = call noalias ptr @malloc(i64 noundef 16) #14
  store ptr %4, ptr %3, align 8, !tbaa !32
  %5 = load i32, ptr %2, align 4, !tbaa !10
  %6 = icmp sgt i32 %5, 0
  br i1 %6, label %7, label %11

7:                                                ; preds = %1
  %8 = load i32, ptr %2, align 4, !tbaa !10
  %9 = icmp slt i32 %8, 16
  br i1 %9, label %10, label %11

10:                                               ; preds = %7
  store i32 16, ptr %2, align 4, !tbaa !10
  br label %11

11:                                               ; preds = %10, %7, %1
  %12 = load ptr, ptr %3, align 8, !tbaa !32
  %13 = getelementptr inbounds nuw %struct.Vec_Int_t_, ptr %12, i32 0, i32 1
  store i32 0, ptr %13, align 4, !tbaa !44
  %14 = load i32, ptr %2, align 4, !tbaa !10
  %15 = load ptr, ptr %3, align 8, !tbaa !32
  %16 = getelementptr inbounds nuw %struct.Vec_Int_t_, ptr %15, i32 0, i32 0
  store i32 %14, ptr %16, align 8, !tbaa !45
  %17 = load ptr, ptr %3, align 8, !tbaa !32
  %18 = getelementptr inbounds nuw %struct.Vec_Int_t_, ptr %17, i32 0, i32 0
  %19 = load i32, ptr %18, align 8, !tbaa !45
  %20 = icmp ne i32 %19, 0
  br i1 %20, label %21, label %28

21:                                               ; preds = %11
  %22 = load ptr, ptr %3, align 8, !tbaa !32
  %23 = getelementptr inbounds nuw %struct.Vec_Int_t_, ptr %22, i32 0, i32 0
  %24 = load i32, ptr %23, align 8, !tbaa !45
  %25 = sext i32 %24 to i64
  %26 = mul i64 4, %25
  %27 = call noalias ptr @malloc(i64 noundef %26) #14
  br label %29

28:                                               ; preds = %11
  br label %29

29:                                               ; preds = %28, %21
  %30 = phi ptr [ %27, %21 ], [ null, %28 ]
  %31 = load ptr, ptr %3, align 8, !tbaa !32
  %32 = getelementptr inbounds nuw %struct.Vec_Int_t_, ptr %31, i32 0, i32 2
  store ptr %30, ptr %32, align 8, !tbaa !46
  %33 = load ptr, ptr %3, align 8, !tbaa !32
  call void @llvm.lifetime.end.p0(i64 8, ptr %3) #13
  ret ptr %33
}

; Function Attrs: inlinehint nounwind uwtable
define internal void @Vec_IntUpdateEntry(ptr noundef %0, i32 noundef %1, i32 noundef %2) #2 {
  %4 = alloca ptr, align 8
  %5 = alloca i32, align 4
  %6 = alloca i32, align 4
  store ptr %0, ptr %4, align 8, !tbaa !32
  store i32 %1, ptr %5, align 4, !tbaa !10
  store i32 %2, ptr %6, align 4, !tbaa !10
  %7 = load ptr, ptr %4, align 8, !tbaa !32
  %8 = load i32, ptr %5, align 4, !tbaa !10
  %9 = call i32 @Vec_IntEntry(ptr noundef %7, i32 noundef %8)
  %10 = load i32, ptr %6, align 4, !tbaa !10
  %11 = icmp slt i32 %9, %10
  br i1 %11, label %12, label %16

12:                                               ; preds = %3
  %13 = load ptr, ptr %4, align 8, !tbaa !32
  %14 = load i32, ptr %5, align 4, !tbaa !10
  %15 = load i32, ptr %6, align 4, !tbaa !10
  call void @Vec_IntWriteEntry(ptr noundef %13, i32 noundef %14, i32 noundef %15)
  br label %16

16:                                               ; preds = %12, %3
  ret void
}

; Function Attrs: inlinehint nounwind uwtable
define internal i32 @Fx_ManComputeLevelCube(ptr noundef %0, ptr noundef %1) #2 {
  %3 = alloca ptr, align 8
  %4 = alloca ptr, align 8
  %5 = alloca i32, align 4
  %6 = alloca i32, align 4
  %7 = alloca i32, align 4
  store ptr %0, ptr %3, align 8, !tbaa !74
  store ptr %1, ptr %4, align 8, !tbaa !32
  call void @llvm.lifetime.start.p0(i64 4, ptr %5) #13
  call void @llvm.lifetime.start.p0(i64 4, ptr %6) #13
  call void @llvm.lifetime.start.p0(i64 4, ptr %7) #13
  store i32 0, ptr %7, align 4, !tbaa !10
  store i32 1, ptr %5, align 4, !tbaa !10
  br label %8

8:                                                ; preds = %28, %2
  %9 = load i32, ptr %5, align 4, !tbaa !10
  %10 = load ptr, ptr %4, align 8, !tbaa !32
  %11 = call i32 @Vec_IntSize(ptr noundef %10)
  %12 = icmp slt i32 %9, %11
  br i1 %12, label %13, label %17

13:                                               ; preds = %8
  %14 = load ptr, ptr %4, align 8, !tbaa !32
  %15 = load i32, ptr %5, align 4, !tbaa !10
  %16 = call i32 @Vec_IntEntry(ptr noundef %14, i32 noundef %15)
  store i32 %16, ptr %6, align 4, !tbaa !10
  br label %17

17:                                               ; preds = %13, %8
  %18 = phi i1 [ false, %8 ], [ true, %13 ]
  br i1 %18, label %19, label %31

19:                                               ; preds = %17
  %20 = load i32, ptr %7, align 4, !tbaa !10
  %21 = load ptr, ptr %3, align 8, !tbaa !74
  %22 = getelementptr inbounds nuw %struct.Fx_Man_t_, ptr %21, i32 0, i32 9
  %23 = load ptr, ptr %22, align 8, !tbaa !97
  %24 = load i32, ptr %6, align 4, !tbaa !10
  %25 = call i32 @Abc_Lit2Var(i32 noundef %24)
  %26 = call i32 @Vec_IntEntry(ptr noundef %23, i32 noundef %25)
  %27 = call i32 @Abc_MaxInt(i32 noundef %20, i32 noundef %26)
  store i32 %27, ptr %7, align 4, !tbaa !10
  br label %28

28:                                               ; preds = %19
  %29 = load i32, ptr %5, align 4, !tbaa !10
  %30 = add nsw i32 %29, 1
  store i32 %30, ptr %5, align 4, !tbaa !10
  br label %8, !llvm.loop !113

31:                                               ; preds = %17
  %32 = load i32, ptr %7, align 4, !tbaa !10
  call void @llvm.lifetime.end.p0(i64 4, ptr %7) #13
  call void @llvm.lifetime.end.p0(i64 4, ptr %6) #13
  call void @llvm.lifetime.end.p0(i64 4, ptr %5) #13
  ret i32 %32
}

; Function Attrs: inlinehint nounwind uwtable
define internal i32 @Vec_IntAddToEntry(ptr noundef %0, i32 noundef %1, i32 noundef %2) #2 {
  %4 = alloca ptr, align 8
  %5 = alloca i32, align 4
  %6 = alloca i32, align 4
  store ptr %0, ptr %4, align 8, !tbaa !32
  store i32 %1, ptr %5, align 4, !tbaa !10
  store i32 %2, ptr %6, align 4, !tbaa !10
  %7 = load i32, ptr %6, align 4, !tbaa !10
  %8 = load ptr, ptr %4, align 8, !tbaa !32
  %9 = getelementptr inbounds nuw %struct.Vec_Int_t_, ptr %8, i32 0, i32 2
  %10 = load ptr, ptr %9, align 8, !tbaa !46
  %11 = load i32, ptr %5, align 4, !tbaa !10
  %12 = sext i32 %11 to i64
  %13 = getelementptr inbounds i32, ptr %10, i64 %12
  %14 = load i32, ptr %13, align 4, !tbaa !10
  %15 = add nsw i32 %14, %7
  store i32 %15, ptr %13, align 4, !tbaa !10
  ret i32 %15
}

; Function Attrs: inlinehint nounwind uwtable
define internal i32 @Vec_WecSize(ptr noundef %0) #2 {
  %2 = alloca ptr, align 8
  store ptr %0, ptr %2, align 8, !tbaa !8
  %3 = load ptr, ptr %2, align 8, !tbaa !8
  %4 = getelementptr inbounds nuw %struct.Vec_Wec_t_, ptr %3, i32 0, i32 1
  %5 = load i32, ptr %4, align 4, !tbaa !37
  ret i32 %5
}

; Function Attrs: inlinehint nounwind uwtable
define internal ptr @Vec_IntStart(i32 noundef %0) #2 {
  %2 = alloca i32, align 4
  %3 = alloca ptr, align 8
  store i32 %0, ptr %2, align 4, !tbaa !10
  call void @llvm.lifetime.start.p0(i64 8, ptr %3) #13
  %4 = load i32, ptr %2, align 4, !tbaa !10
  %5 = call ptr @Vec_IntAlloc(i32 noundef %4)
  store ptr %5, ptr %3, align 8, !tbaa !32
  %6 = load i32, ptr %2, align 4, !tbaa !10
  %7 = load ptr, ptr %3, align 8, !tbaa !32
  %8 = getelementptr inbounds nuw %struct.Vec_Int_t_, ptr %7, i32 0, i32 1
  store i32 %6, ptr %8, align 4, !tbaa !44
  %9 = load ptr, ptr %3, align 8, !tbaa !32
  %10 = getelementptr inbounds nuw %struct.Vec_Int_t_, ptr %9, i32 0, i32 2
  %11 = load ptr, ptr %10, align 8, !tbaa !46
  %12 = icmp ne ptr %11, null
  br i1 %12, label %13, label %20

13:                                               ; preds = %1
  %14 = load ptr, ptr %3, align 8, !tbaa !32
  %15 = getelementptr inbounds nuw %struct.Vec_Int_t_, ptr %14, i32 0, i32 2
  %16 = load ptr, ptr %15, align 8, !tbaa !46
  %17 = load i32, ptr %2, align 4, !tbaa !10
  %18 = sext i32 %17 to i64
  %19 = mul i64 4, %18
  call void @llvm.memset.p0.i64(ptr align 4 %16, i8 0, i64 %19, i1 false)
  br label %20

20:                                               ; preds = %13, %1
  %21 = load ptr, ptr %3, align 8, !tbaa !32
  call void @llvm.lifetime.end.p0(i64 8, ptr %3) #13
  ret ptr %21
}

; Function Attrs: inlinehint nounwind uwtable
define internal i32 @Vec_IntEntry(ptr noundef %0, i32 noundef %1) #2 {
  %3 = alloca ptr, align 8
  %4 = alloca i32, align 4
  store ptr %0, ptr %3, align 8, !tbaa !32
  store i32 %1, ptr %4, align 4, !tbaa !10
  %5 = load ptr, ptr %3, align 8, !tbaa !32
  %6 = getelementptr inbounds nuw %struct.Vec_Int_t_, ptr %5, i32 0, i32 2
  %7 = load ptr, ptr %6, align 8, !tbaa !46
  %8 = load i32, ptr %4, align 4, !tbaa !10
  %9 = sext i32 %8 to i64
  %10 = getelementptr inbounds i32, ptr %7, i64 %9
  %11 = load i32, ptr %10, align 4, !tbaa !10
  ret i32 %11
}

; Function Attrs: inlinehint nounwind uwtable
define internal ptr @Vec_WecEntry(ptr noundef %0, i32 noundef %1) #2 {
  %3 = alloca ptr, align 8
  %4 = alloca i32, align 4
  store ptr %0, ptr %3, align 8, !tbaa !8
  store i32 %1, ptr %4, align 4, !tbaa !10
  %5 = load ptr, ptr %3, align 8, !tbaa !8
  %6 = getelementptr inbounds nuw %struct.Vec_Wec_t_, ptr %5, i32 0, i32 2
  %7 = load ptr, ptr %6, align 8, !tbaa !40
  %8 = load i32, ptr %4, align 4, !tbaa !10
  %9 = sext i32 %8 to i64
  %10 = getelementptr inbounds %struct.Vec_Int_t_, ptr %7, i64 %9
  ret ptr %10
}

; Function Attrs: nounwind uwtable
define void @Fx_ManComputeLevel(ptr noundef %0) #0 {
  %2 = alloca ptr, align 8
  %3 = alloca ptr, align 8
  %4 = alloca i32, align 4
  %5 = alloca i32, align 4
  %6 = alloca i32, align 4
  store ptr %0, ptr %2, align 8, !tbaa !74
  call void @llvm.lifetime.start.p0(i64 8, ptr %3) #13
  call void @llvm.lifetime.start.p0(i64 4, ptr %4) #13
  call void @llvm.lifetime.start.p0(i64 4, ptr %5) #13
  call void @llvm.lifetime.start.p0(i64 4, ptr %6) #13
  store i32 0, ptr %6, align 4, !tbaa !10
  %7 = load ptr, ptr %2, align 8, !tbaa !74
  %8 = getelementptr inbounds nuw %struct.Fx_Man_t_, ptr %7, i32 0, i32 0
  %9 = load ptr, ptr %8, align 8, !tbaa !85
  %10 = call ptr @Vec_WecEntry(ptr noundef %9, i32 noundef 0)
  %11 = call i32 @Vec_IntEntry(ptr noundef %10, i32 noundef 0)
  store i32 %11, ptr %5, align 4, !tbaa !10
  %12 = load ptr, ptr %2, align 8, !tbaa !74
  %13 = getelementptr inbounds nuw %struct.Fx_Man_t_, ptr %12, i32 0, i32 17
  %14 = load i32, ptr %13, align 8, !tbaa !111
  %15 = call ptr @Vec_IntStart(i32 noundef %14)
  %16 = load ptr, ptr %2, align 8, !tbaa !74
  %17 = getelementptr inbounds nuw %struct.Fx_Man_t_, ptr %16, i32 0, i32 9
  store ptr %15, ptr %17, align 8, !tbaa !97
  store i32 0, ptr %4, align 4, !tbaa !10
  br label %18

18:                                               ; preds = %58, %1
  %19 = load i32, ptr %4, align 4, !tbaa !10
  %20 = load ptr, ptr %2, align 8, !tbaa !74
  %21 = getelementptr inbounds nuw %struct.Fx_Man_t_, ptr %20, i32 0, i32 0
  %22 = load ptr, ptr %21, align 8, !tbaa !85
  %23 = call i32 @Vec_WecSize(ptr noundef %22)
  %24 = icmp slt i32 %19, %23
  br i1 %24, label %25, label %31

25:                                               ; preds = %18
  %26 = load ptr, ptr %2, align 8, !tbaa !74
  %27 = getelementptr inbounds nuw %struct.Fx_Man_t_, ptr %26, i32 0, i32 0
  %28 = load ptr, ptr %27, align 8, !tbaa !85
  %29 = load i32, ptr %4, align 4, !tbaa !10
  %30 = call ptr @Vec_WecEntry(ptr noundef %28, i32 noundef %29)
  store ptr %30, ptr %3, align 8, !tbaa !32
  br label %31

31:                                               ; preds = %25, %18
  %32 = phi i1 [ false, %18 ], [ true, %25 ]
  br i1 %32, label %33, label %61

33:                                               ; preds = %31
  %34 = load i32, ptr %5, align 4, !tbaa !10
  %35 = load ptr, ptr %3, align 8, !tbaa !32
  %36 = call i32 @Vec_IntEntry(ptr noundef %35, i32 noundef 0)
  %37 = icmp ne i32 %34, %36
  br i1 %37, label %38, label %50

38:                                               ; preds = %33
  %39 = load ptr, ptr %2, align 8, !tbaa !74
  %40 = getelementptr inbounds nuw %struct.Fx_Man_t_, ptr %39, i32 0, i32 9
  %41 = load ptr, ptr %40, align 8, !tbaa !97
  %42 = load i32, ptr %5, align 4, !tbaa !10
  %43 = load i32, ptr %4, align 4, !tbaa !10
  %44 = load i32, ptr %6, align 4, !tbaa !10
  %45 = sub nsw i32 %43, %44
  %46 = call i32 @Vec_IntAddToEntry(ptr noundef %41, i32 noundef %42, i32 noundef %45)
  %47 = load ptr, ptr %3, align 8, !tbaa !32
  %48 = call i32 @Vec_IntEntry(ptr noundef %47, i32 noundef 0)
  store i32 %48, ptr %5, align 4, !tbaa !10
  %49 = load i32, ptr %4, align 4, !tbaa !10
  store i32 %49, ptr %6, align 4, !tbaa !10
  br label %50

50:                                               ; preds = %38, %33
  %51 = load ptr, ptr %2, align 8, !tbaa !74
  %52 = getelementptr inbounds nuw %struct.Fx_Man_t_, ptr %51, i32 0, i32 9
  %53 = load ptr, ptr %52, align 8, !tbaa !97
  %54 = load i32, ptr %5, align 4, !tbaa !10
  %55 = load ptr, ptr %2, align 8, !tbaa !74
  %56 = load ptr, ptr %3, align 8, !tbaa !32
  %57 = call i32 @Fx_ManComputeLevelCube(ptr noundef %55, ptr noundef %56)
  call void @Vec_IntUpdateEntry(ptr noundef %53, i32 noundef %54, i32 noundef %57)
  br label %58

58:                                               ; preds = %50
  %59 = load i32, ptr %4, align 4, !tbaa !10
  %60 = add nsw i32 %59, 1
  store i32 %60, ptr %4, align 4, !tbaa !10
  br label %18, !llvm.loop !112

61:                                               ; preds = %31
  call void @llvm.lifetime.end.p0(i64 4, ptr %6) #13
  call void @llvm.lifetime.end.p0(i64 4, ptr %5) #13
  call void @llvm.lifetime.end.p0(i64 4, ptr %4) #13
  call void @llvm.lifetime.end.p0(i64 8, ptr %3) #13
  ret void
}